; ModuleID = '43/1065.c'
source_filename = "43/1065.c"
target datalayout = "e-m:e-p270:32:32-p271:32:32-p272:64:64-i64:64-f80:128-n8:16:32:64-S128"
target triple = "x86_64-pc-linux-gnu"

@.str = private unnamed_addr constant [3 x i8] c"%d\00", align 1
@.str.1 = private unnamed_addr constant [7 x i8] c"%d %d\0A\00", align 1

; Function Attrs: noinline nounwind uwtable
define dso_local i32 @main() #0 {
  %1 = alloca i32, align 4
  %2 = alloca i32, align 4
  %3 = alloca i32, align 4
  %4 = alloca i32, align 4
  %5 = alloca i32, align 4
  %6 = alloca i32, align 4
  %7 = alloca i32, align 4
  %8 = alloca i32, align 4
  %9 = alloca i32, align 4
  store i32 0, i32* %1, align 4
  %10 = call i32 (i8*, ...) @__isoc99_scanf(i8* getelementptr inbounds ([3 x i8], [3 x i8]* @.str, i64 0, i64 0), i32* %4)
  %11 = load i32, i32* %4, align 4
  %12 = sdiv i32 %11, 2
  store i32 %12, i32* %5, align 4
  store i32 3, i32* %6, align 4
  br label %13

13:                                               ; preds = %63, %0
  %14 = load i32, i32* %6, align 4
  %15 = load i32, i32* %5, align 4
  %16 = icmp sle i32 %14, %15
  br i1 %16, label %17, label %66

17:                                               ; preds = %13
  %18 = load i32, i32* %6, align 4
  store i32 %18, i32* %2, align 4
  %19 = load i32, i32* %4, align 4
  %20 = load i32, i32* %6, align 4
  %21 = sub nsw i32 %19, %20
  store i32 %21, i32* %3, align 4
  store i32 0, i32* %9, align 4
  store i32 2, i32* %7, align 4
  br label %22

22:                                               ; preds = %35, %17
  %23 = load i32, i32* %7, align 4
  %24 = load i32, i32* %2, align 4
  %25 = icmp slt i32 %23, %24
  br i1 %25, label %26, label %38

26:                                               ; preds = %22
  %27 = load i32, i32* %2, align 4
  %28 = load i32, i32* %7, align 4
  %29 = srem i32 %27, %28
  %30 = icmp eq i32 %29, 0
  br i1 %30, label %31, label %34

31:                                               ; preds = %26
  %32 = load i32, i32* %9, align 4
  %33 = add nsw i32 %32, 1
  store i32 %33, i32* %9, align 4
  br label %38

34:                                               ; preds = %26
  br label %35

35:                                               ; preds = %34
  %36 = load i32, i32* %7, align 4
  %37 = add nsw i32 %36, 1
  store i32 %37, i32* %7, align 4
  br label %22

38:                                               ; preds = %31, %22
  store i32 2, i32* %8, align 4
  br label %39

39:                                               ; preds = %52, %38
  %40 = load i32, i32* %8, align 4
  %41 = load i32, i32* %3, align 4
  %42 = icmp slt i32 %40, %41
  br i1 %42, label %43, label %55

43:                                               ; preds = %39
  %44 = load i32, i32* %3, align 4
  %45 = load i32, i32* %8, align 4
  %46 = srem i32 %44, %45
  %47 = icmp eq i32 %46, 0
  br i1 %47, label %48, label %51

48:                                               ; preds = %43
  %49 = load i32, i32* %9, align 4
  %50 = add nsw i32 %49, 1
  store i32 %50, i32* %9, align 4
  br label %55

51:                                               ; preds = %43
  br label %52

52:                                               ; preds = %51
  %53 = load i32, i32* %8, align 4
  %54 = add nsw i32 %53, 1
  store i32 %54, i32* %8, align 4
  br label %39

55:                                               ; preds = %48, %39
  %56 = load i32, i32* %9, align 4
  %57 = icmp eq i32 %56, 0
  br i1 %57, label %58, label %62

58:                                               ; preds = %55
  %59 = load i32, i32* %2, align 4
  %60 = load i32, i32* %3, align 4
  %61 = call i32 (i8*, ...) @printf(i8* getelementptr inbounds ([7 x i8], [7 x i8]* @.str.1, i64 0, i64 0), i32 %59, i32 %60)
  br label %62

62:                                               ; preds = %58, %55
  br label %63

63:                                               ; preds = %62
  %64 = load i32, i32* %6, align 4
  %65 = add nsw i32 %64, 2
  store i32 %65, i32* %6, align 4
  br label %13

66:                                               ; preds = %13
  ret i32 0
}

declare dso_local i32 @__isoc99_scanf(i8*, ...) #1

declare dso_local i32 @printf(i8*, ...) #1


!llvm.module.flags = !{!0}
!llvm.ident = !{!1}

!0 = !{i32 1, !"wchar_size", i32 4}
!1 = !{!"clang version 10.0.0-4ubuntu1 "}
