; ModuleID = 'source-C-CXX/42/1065.c'
source_filename = "source-C-CXX/42/1065.c"
target datalayout = "e-m:e-p270:32:32-p271:32:32-p272:64:64-i64:64-f80:128-n8:16:32:64-S128"
target triple = "x86_64-pc-linux-gnu"

@.str = private unnamed_addr constant [3 x i8] c"%d\00", align 1
@.str.1 = private unnamed_addr constant [7 x i8] c"%d %d\0A\00", align 1

; Function Attrs: nofree nounwind sspstrong uwtable
define dso_local i32 @main() local_unnamed_addr #0 {
  %1 = alloca i32, align 4
  %2 = bitcast i32* %1 to i8*
  call void @llvm.lifetime.start.p0i8(i64 4, i8* nonnull %2) #3
  %3 = call i32 (i8*, ...) @__isoc99_scanf(i8* getelementptr inbounds ([3 x i8], [3 x i8]* @.str, i64 0, i64 0), i32* nonnull %1)
  %4 = load i32, i32* %1, align 4, !tbaa !5
  %5 = sdiv i32 %4, 2
  %6 = icmp slt i32 %4, 6
  br i1 %6, label %44, label %7

7:                                                ; preds = %0, %41
  %8 = phi i32 [ %43, %41 ], [ %4, %0 ]
  %9 = phi i32 [ %42, %41 ], [ -3, %0 ]
  %10 = phi i32 [ %39, %41 ], [ 3, %0 ]
  %11 = sub nsw i32 %8, %10
  %12 = and i32 %10, 1
  %13 = icmp eq i32 %12, 0
  br i1 %13, label %23, label %14

14:                                               ; preds = %7, %17
  %15 = phi i32 [ %20, %17 ], [ 3, %7 ]
  %16 = icmp eq i32 %15, %10
  br i1 %16, label %21, label %17, !llvm.loop !9

17:                                               ; preds = %14
  %18 = urem i32 %10, %15
  %19 = icmp eq i32 %18, 0
  %20 = add nuw nsw i32 %15, 1
  br i1 %19, label %21, label %14, !llvm.loop !9

21:                                               ; preds = %17, %14
  %22 = icmp ult i32 %15, %10
  br label %23

23:                                               ; preds = %21, %7
  %24 = phi i1 [ true, %7 ], [ %22, %21 ]
  %25 = icmp sgt i32 %11, 2
  br i1 %25, label %26, label %35

26:                                               ; preds = %23
  %27 = add i32 %8, %9
  br label %30

28:                                               ; preds = %30
  %29 = icmp eq i32 %34, %27
  br i1 %29, label %35, label %30, !llvm.loop !11

30:                                               ; preds = %26, %28
  %31 = phi i32 [ %34, %28 ], [ 2, %26 ]
  %32 = srem i32 %11, %31
  %33 = icmp eq i32 %32, 0
  %34 = add nuw nsw i32 %31, 1
  br i1 %33, label %38, label %28

35:                                               ; preds = %28, %23
  br i1 %24, label %38, label %36

36:                                               ; preds = %35
  %37 = call i32 (i8*, ...) @printf(i8* nonnull dereferenceable(1) getelementptr inbounds ([7 x i8], [7 x i8]* @.str.1, i64 0, i64 0), i32 %10, i32 %11)
  br label %38

38:                                               ; preds = %30, %35, %36
  %39 = add nuw nsw i32 %10, 2
  %40 = icmp sgt i32 %39, %5
  br i1 %40, label %44, label %41, !llvm.loop !12

41:                                               ; preds = %38
  %42 = add nsw i32 %9, -2
  %43 = load i32, i32* %1, align 4, !tbaa !5
  br label %7

44:                                               ; preds = %38, %0
  call void @llvm.lifetime.end.p0i8(i64 4, i8* nonnull %2) #3
  ret i32 0
}

; Function Attrs: argmemonly mustprogress nofree nosync nounwind willreturn
declare void @llvm.lifetime.start.p0i8(i64 immarg, i8* nocapture) #1

; Function Attrs: nofree nounwind
declare noundef i32 @__isoc99_scanf(i8* nocapture noundef readonly, ...) local_unnamed_addr #2

; Function Attrs: nofree nounwind
declare noundef i32 @printf(i8* nocapture noundef readonly, ...) local_unnamed_addr #2

; Function Attrs: argmemonly mustprogress nofree nosync nounwind willreturn
declare void @llvm.lifetime.end.p0i8(i64 immarg, i8* nocapture) #1


!llvm.module.flags = !{!0, !1, !2, !3}
!llvm.ident = !{!4}

!0 = !{i32 1, !"wchar_size", i32 4}
!1 = !{i32 7, !"PIC Level", i32 2}
!2 = !{i32 7, !"PIE Level", i32 2}
!3 = !{i32 7, !"uwtable", i32 1}
!4 = !{!"clang version 13.0.0"}
!5 = !{!6, !6, i64 0}
!6 = !{!"int", !7, i64 0}
!7 = !{!"omnipotent char", !8, i64 0}
!8 = !{!"Simple C/C++ TBAA"}
!9 = distinct !{!9, !10}
!10 = !{!"llvm.loop.mustprogress"}
!11 = distinct !{!11, !10}
!12 = distinct !{!12, !10}
